; Function Attrs: mustprogress nofree norecurse nounwind willreturn memory(argmem: readwrite) uwtable
define hidden void @_ZN6google8protobuf8internal12MapFieldBase9SwapStateEPS2_(ptr noundef nonnull align 8 captures(none) dereferenceable(68) %0, ptr noundef captures(none) %1) local_unnamed_addr #7 align 2 {
  %3 = getelementptr inbounds nuw i8, ptr %1, i64 64
  %4 = load atomic i32, ptr %3 monotonic, align 4
  %5 = getelementptr inbounds nuw i8, ptr %0, i64 64
  %6 = load atomic i32, ptr %5 monotonic, align 8
  store atomic i32 %6, ptr %3 monotonic, align 4
  store atomic i32 %4, ptr %5 monotonic, align 8
  ret void
}